target datalayout = "e-m:e-p270:32:32-p271:32:32-p272:64:64-i64:64-i128:128-f80:128-n8:16:32:64-S128"
target triple = "x86_64-pc-linux-gnu"

%class.btVector3 = type { [4 x float] }
%class.btCollisionObject = type <{ ptr, %class.btTransform, %class.btTransform, %class.btVector3, %class.btVector3, %class.btVector3, i32, float, ptr, ptr, ptr, ptr, i32, i32, i32, i32, i32, float, float, float, float, float, float, float, i32, [4 x i8], ptr, i32, i32, i32, float, float, float, i32, [4 x i8], %class.btAlignedObjectArray.0, i32, %class.btVector3, [4 x i8] }>
%class.btTransform = type { %class.btMatrix3x3, %class.btVector3 }
%class.btMatrix3x3 = type { [3 x %class.btVector3] }
%class.btAlignedObjectArray.0 = type <{ [4 x i8], i32, i32, [4 x i8], ptr, i8, [7 x i8] }>

; Function Attrs: inlinehint mustprogress nounwind uwtable
define linkonce_odr dso_local noundef i32 @_ZNK17btCollisionObject18getActivationStateEv(ptr noundef nonnull align 8 dereferenceable(372) %0) #3 comdat align 2 {
  %2 = alloca ptr, align 8
  store ptr %0, ptr %2, align 8, !tbaa !51
  %3 = load ptr, ptr %2, align 8
  %4 = getelementptr inbounds nuw %class.btCollisionObject, ptr %3, i32 0, i32 16
  %5 = load i32, ptr %4, align 8, !tbaa !157
  ret i32 %5
}

; Function Attrs: inlinehint mustprogress uwtable
define linkonce_odr dso_local noundef zeroext i1 @_ZNK17btCollisionObject16checkCollideWithEPKS_(ptr noundef nonnull align 8 dereferenceable(372) %0, ptr noundef %1) #8 comdat align 2 {
  %3 = alloca i1, align 1
  %4 = alloca ptr, align 8
  %5 = alloca ptr, align 8
  store ptr %0, ptr %4, align 8, !tbaa !51
  store ptr %1, ptr %5, align 8, !tbaa !51
  %6 = load ptr, ptr %4, align 8
  %7 = getelementptr inbounds nuw %class.btCollisionObject, ptr %6, i32 0, i32 33
  %8 = load i32, ptr %7, align 8, !tbaa !119
  %9 = icmp ne i32 %8, 0
  br i1 %9, label %10, label %16

10:                                               ; preds = %2
  %11 = load ptr, ptr %5, align 8, !tbaa !51
  %12 = load ptr, ptr %6, align 8, !tbaa !16
  %13 = getelementptr inbounds ptr, ptr %12, i64 3
  %14 = load ptr, ptr %13, align 8
  %15 = call noundef zeroext i1 %14(ptr noundef nonnull align 8 dereferenceable(372) %6, ptr noundef %11)
  store i1 %15, ptr %3, align 1
  br label %17

16:                                               ; preds = %2
  store i1 true, ptr %3, align 1
  br label %17

17:                                               ; preds = %16, %10
  %18 = load i1, ptr %3, align 1
  ret i1 %18
}

; Function Attrs: inlinehint mustprogress uwtable
define linkonce_odr dso_local noundef zeroext i1 @_ZNK17btCollisionObject8isActiveEv(ptr noundef nonnull align 8 dereferenceable(372) %0) #8 comdat align 2 {
  %2 = alloca ptr, align 8
  store ptr %0, ptr %2, align 8, !tbaa !51
  %3 = load ptr, ptr %2, align 8
  %4 = call noundef i32 @_ZNK17btCollisionObject18getActivationStateEv(ptr noundef nonnull align 8 dereferenceable(372) %3)
  %5 = icmp ne i32 %4, 6
  br i1 %5, label %6, label %12

6:                                                ; preds = %1
  %7 = call noundef i32 @_ZNK17btCollisionObject18getActivationStateEv(ptr noundef nonnull align 8 dereferenceable(372) %3)
  %8 = icmp ne i32 %7, 2
  br i1 %8, label %9, label %12

9:                                                ; preds = %6
  %10 = call noundef i32 @_ZNK17btCollisionObject18getActivationStateEv(ptr noundef nonnull align 8 dereferenceable(372) %3)
  %11 = icmp ne i32 %10, 5
  br label %12

12:                                               ; preds = %9, %6, %1
  %13 = phi i1 [ false, %6 ], [ false, %1 ], [ %11, %9 ]
  ret i1 %13
}

; Function Attrs: mustprogress uwtable
define dso_local noundef zeroext i1 @_ZN21btCollisionDispatcher14needsCollisionEPK17btCollisionObjectS2_(ptr noundef nonnull align 8 dereferenceable(20816) %0, ptr noundef %1, ptr noundef %2) unnamed_addr #2 align 2 {
  %4 = alloca ptr, align 8
  %5 = alloca ptr, align 8
  %6 = alloca ptr, align 8
  %7 = alloca i8, align 1
  store ptr %0, ptr %4, align 8, !tbaa !12
  store ptr %1, ptr %5, align 8, !tbaa !51
  store ptr %2, ptr %6, align 8, !tbaa !51
  call void @llvm.lifetime.start.p0(i64 1, ptr %7) #11
  store i8 1, ptr %7, align 1, !tbaa !115
  %8 = load ptr, ptr %5, align 8, !tbaa !51
  %9 = call noundef zeroext i1 @_ZNK17btCollisionObject8isActiveEv(ptr noundef nonnull align 8 dereferenceable(372) %8)
  br i1 %9, label %14, label %10

10:                                               ; preds = %3
  %11 = load ptr, ptr %6, align 8, !tbaa !51
  %12 = call noundef zeroext i1 @_ZNK17btCollisionObject8isActiveEv(ptr noundef nonnull align 8 dereferenceable(372) %11)
  br i1 %12, label %14, label %13

13:                                               ; preds = %10
  store i8 0, ptr %7, align 1, !tbaa !115
  br label %24

14:                                               ; preds = %10, %3
  %15 = load ptr, ptr %5, align 8, !tbaa !51
  %16 = load ptr, ptr %6, align 8, !tbaa !51
  %17 = call noundef zeroext i1 @_ZNK17btCollisionObject16checkCollideWithEPKS_(ptr noundef nonnull align 8 dereferenceable(372) %15, ptr noundef %16)
  br i1 %17, label %18, label %22

18:                                               ; preds = %14
  %19 = load ptr, ptr %6, align 8, !tbaa !51
  %20 = load ptr, ptr %5, align 8, !tbaa !51
  %21 = call noundef zeroext i1 @_ZNK17btCollisionObject16checkCollideWithEPKS_(ptr noundef nonnull align 8 dereferenceable(372) %19, ptr noundef %20)
  br i1 %21, label %23, label %22

22:                                               ; preds = %18, %14
  store i8 0, ptr %7, align 1, !tbaa !115
  br label %23

23:                                               ; preds = %22, %18
  br label %24

24:                                               ; preds = %23, %13
  %25 = load i8, ptr %7, align 1, !tbaa !115, !range !116, !noundef !117
  %26 = trunc i8 %25 to i1
  call void @llvm.lifetime.end.p0(i64 1, ptr %7) #11
  ret i1 %26
}